target datalayout = "e-m:e-p270:32:32-p271:32:32-p272:64:64-i64:64-i128:128-f80:128-n8:16:32:64-S128"
target triple = "x86_64-pc-linux-gnu"

%class.anon = type { i8 }
%class.anon.178 = type { i8 }

@.str.13 = private unnamed_addr constant [14 x i8] c"pmeOrder >= 3\00", align 1
@.str.14 = private unnamed_addr constant [24 x i8] c"pmeOrder has to be >= 3\00", align 1
@"__PRETTY_FUNCTION__._ZZ18minimalPmeGridSizeiENK3$_0clEv" = private unnamed_addr constant [68 x i8] c"auto minimalPmeGridSize(int)::(anonymous class)::operator()() const\00", align 1
@.str.15 = private unnamed_addr constant [119 x i8] c"generated/home/dtcxzyw/WorkSpace/Projects/compilers/llvm-opt-benchmark/bench/gromacs/gromacs/src/gromacs/ewald/pme.cpp\00", align 1
@.str.16 = private unnamed_addr constant [28 x i8] c"minimalSize >= pmeOrder + 1\00", align 1
@.str.17 = private unnamed_addr constant [40 x i8] c"The grid size should be >= pmeOrder + 1\00", align 1

; Function Attrs: mustprogress uwtable
define internal void @"_ZZ18minimalPmeGridSizeiENK3$_1clEv"(ptr noundef nonnull align 1 dereferenceable(1) %0) #0 align 2 {
  %2 = alloca ptr, align 8
  store ptr %0, ptr %2, align 8
  call void @_ZN3gmx8internal13assertHandlerEPKcS2_S2_S2_i(ptr noundef @.str.16, ptr noundef @.str.17, ptr noundef @"__PRETTY_FUNCTION__._ZZ18minimalPmeGridSizeiENK3$_0clEv", ptr noundef @.str.15, i32 noundef 461) #16
  unreachable
}

; Function Attrs: mustprogress uwtable
define internal void @"_ZZ18minimalPmeGridSizeiENK3$_0clEv"(ptr noundef nonnull align 1 dereferenceable(1) %0) #0 align 2 {
  %2 = alloca ptr, align 8
  store ptr %0, ptr %2, align 8
  call void @_ZN3gmx8internal13assertHandlerEPKcS2_S2_S2_i(ptr noundef @.str.13, ptr noundef @.str.14, ptr noundef @"__PRETTY_FUNCTION__._ZZ18minimalPmeGridSizeiENK3$_0clEv", ptr noundef @.str.15, i32 noundef 460) #16
  unreachable
}

; Function Attrs: mustprogress uwtable
define noundef i32 @_Z18minimalPmeGridSizei(i32 noundef %0) #0 {
  %2 = alloca i32, align 4
  %3 = alloca i32, align 4
  %4 = alloca %class.anon, align 1
  %5 = alloca %class.anon.178, align 1
  store i32 %0, ptr %2, align 4
  %6 = load i32, ptr %2, align 4
  %7 = sub nsw i32 %6, 1
  %8 = mul nsw i32 2, %7
  store i32 %8, ptr %3, align 4
  %9 = load i32, ptr %2, align 4
  %10 = icmp sge i32 %9, 3
  br i1 %10, label %11, label %12

11:                                               ; preds = %1
  br label %13

12:                                               ; preds = %1
  call void @"_ZZ18minimalPmeGridSizeiENK3$_0clEv"(ptr noundef nonnull align 1 dereferenceable(1) %4)
  br label %13

13:                                               ; preds = %12, %11
  %14 = load i32, ptr %3, align 4
  %15 = load i32, ptr %2, align 4
  %16 = add nsw i32 %15, 1
  %17 = icmp sge i32 %14, %16
  br i1 %17, label %18, label %19

18:                                               ; preds = %13
  br label %20

19:                                               ; preds = %13
  call void @"_ZZ18minimalPmeGridSizeiENK3$_1clEv"(ptr noundef nonnull align 1 dereferenceable(1) %5)
  br label %20

20:                                               ; preds = %19, %18
  %21 = load i32, ptr %3, align 4
  ret i32 %21
}