; Function Attrs: mustprogress uwtable
define noundef i32 @_Z18minimalPmeGridSizei(i32 noundef %0) local_unnamed_addr #0 {
  %2 = shl i32 %0, 1
  %3 = add i32 %2, -2
  %4 = icmp sgt i32 %0, 2
  br i1 %4, label %6, label %5

5:                                                ; preds = %1
  tail call void @_ZN3gmx8internal13assertHandlerEPKcS2_S2_S2_i(ptr noundef nonnull @.str.13, ptr noundef nonnull @.str.14, ptr noundef nonnull @"__PRETTY_FUNCTION__._ZZ18minimalPmeGridSizeiENK3$_0clEv", ptr noundef nonnull @.str.15, i32 noundef 460) #25
  unreachable

6:                                                ; preds = %1
  %.not.not = icmp sgt i32 %3, %0
  br i1 %.not.not, label %8, label %7

7:                                                ; preds = %6
  tail call void @_ZN3gmx8internal13assertHandlerEPKcS2_S2_S2_i(ptr noundef nonnull @.str.16, ptr noundef nonnull @.str.17, ptr noundef nonnull @"__PRETTY_FUNCTION__._ZZ18minimalPmeGridSizeiENK3$_0clEv", ptr noundef nonnull @.str.15, i32 noundef 461) #25
  unreachable

8:                                                ; preds = %6
  ret i32 %3
}